target datalayout = "e-m:e-p270:32:32-p271:32:32-p272:64:64-i64:64-i128:128-f80:128-n8:16:32:64-S128"
target triple = "x86_64-pc-linux-gnu"

%struct.evhttp_connection = type { %struct.anon, ptr, %struct.event, ptr, i16, ptr, i16, ptr, i64, i64, i32, %struct.timeval, %struct.timeval, %struct.timeval, i32, i32, %struct.timeval, i32, ptr, %struct.evcon_requestq, ptr, ptr, ptr, ptr, %struct.event_callback, ptr, ptr, i32, ptr }
%struct.anon = type { ptr, ptr }
%struct.event = type { %struct.event_callback, %union.anon.1, i32, i16, i16, ptr, %union.anon.3, %struct.timeval }
%union.anon.1 = type { %struct.anon.2 }
%struct.anon.2 = type { ptr, ptr }
%union.anon.3 = type { %struct.anon.4 }
%struct.anon.4 = type { %struct.anon.5, %struct.timeval }
%struct.anon.5 = type { ptr, ptr }
%struct.timeval = type { i64, i64 }
%struct.evcon_requestq = type { ptr, ptr }
%struct.event_callback = type { %struct.anon.0, i16, i8, i8, %union.anon, ptr }
%struct.anon.0 = type { ptr, ptr }
%union.anon = type { ptr }
%struct.evhttp_request = type { %struct.anon.8, ptr, i32, ptr, ptr, ptr, i16, ptr, i32, i32, i64, i64, ptr, ptr, i8, i8, i32, ptr, ptr, i64, i8, ptr, ptr, ptr, ptr, ptr, ptr, ptr, ptr }
%struct.anon.8 = type { ptr, ptr }

@event_debug_logging_mask_ = external global i32, align 4
@.str.94 = private unnamed_addr constant [41 x i8] c"%s: connection timeout for \22%s:%d\22 on %d\00", align 1
@__func__.evhttp_error_cb = private unnamed_addr constant [16 x i8] c"evhttp_error_cb\00", align 1

; Function Attrs: nounwind uwtable
define internal void @evhttp_connection_read_on_write_error(ptr noundef %0, ptr noundef %1) #0 {
  %3 = alloca ptr, align 8
  %4 = alloca ptr, align 8
  %5 = alloca ptr, align 8
  %6 = alloca i32, align 4
  store ptr %0, ptr %3, align 8
  store ptr %1, ptr %4, align 8
  call void @llvm.lifetime.start.p0(i64 8, ptr %5) #11
  %7 = load ptr, ptr %3, align 8
  %8 = getelementptr inbounds nuw %struct.evhttp_connection, ptr %7, i32 0, i32 10
  %9 = load i32, ptr %8, align 8
  %10 = and i32 %9, 2097152
  %11 = icmp ne i32 %10, 0
  br i1 %11, label %12, label %18

12:                                               ; preds = %2
  %13 = load ptr, ptr %3, align 8
  %14 = getelementptr inbounds nuw %struct.evhttp_connection, ptr %13, i32 0, i32 10
  %15 = load i32, ptr %14, align 8
  %16 = and i32 %15, -2097153
  store i32 %16, ptr %14, align 8
  %17 = load ptr, ptr %3, align 8
  call void @evhttp_connection_fail_(ptr noundef %17, i32 noundef 1)
  store i32 1, ptr %6, align 4
  br label %38

18:                                               ; preds = %2
  %19 = load ptr, ptr %4, align 8
  %20 = getelementptr inbounds nuw %struct.evhttp_request, ptr %19, i32 0, i32 8
  store i32 1, ptr %20, align 8
  %21 = load ptr, ptr %3, align 8
  %22 = getelementptr inbounds nuw %struct.evhttp_connection, ptr %21, i32 0, i32 1
  %23 = load ptr, ptr %22, align 8
  %24 = call ptr @bufferevent_get_output(ptr noundef %23)
  store ptr %24, ptr %5, align 8
  %25 = load ptr, ptr %5, align 8
  %26 = call i32 @evbuffer_unfreeze(ptr noundef %25, i32 noundef 1)
  %27 = load ptr, ptr %5, align 8
  %28 = load ptr, ptr %5, align 8
  %29 = call i64 @evbuffer_get_length(ptr noundef %28)
  %30 = call i32 @evbuffer_drain(ptr noundef %27, i64 noundef %29)
  %31 = load ptr, ptr %5, align 8
  %32 = call i32 @evbuffer_freeze(ptr noundef %31, i32 noundef 1)
  %33 = load ptr, ptr %3, align 8
  call void @evhttp_start_read_(ptr noundef %33)
  %34 = load ptr, ptr %3, align 8
  %35 = getelementptr inbounds nuw %struct.evhttp_connection, ptr %34, i32 0, i32 10
  %36 = load i32, ptr %35, align 8
  %37 = or i32 %36, 2097152
  store i32 %37, ptr %35, align 8
  store i32 0, ptr %6, align 4
  br label %38

38:                                               ; preds = %18, %12
  call void @llvm.lifetime.end.p0(i64 8, ptr %5) #11
  %39 = load i32, ptr %6, align 4
  switch i32 %39, label %41 [
    i32 0, label %40
    i32 1, label %40
  ]

40:                                               ; preds = %38, %38
  ret void

41:                                               ; preds = %38
  unreachable
}

; Function Attrs: nounwind uwtable
define internal void @evhttp_error_cb(ptr noundef %0, i16 noundef signext %1, ptr noundef %2) #0 {
  %4 = alloca ptr, align 8
  %5 = alloca i16, align 2
  %6 = alloca ptr, align 8
  %7 = alloca ptr, align 8
  %8 = alloca ptr, align 8
  %9 = alloca i32, align 4
  store ptr %0, ptr %4, align 8
  store i16 %1, ptr %5, align 2
  store ptr %2, ptr %6, align 8
  call void @llvm.lifetime.start.p0(i64 8, ptr %7) #11
  %10 = load ptr, ptr %6, align 8
  store ptr %10, ptr %7, align 8
  call void @llvm.lifetime.start.p0(i64 8, ptr %8) #11
  %11 = load ptr, ptr %7, align 8
  %12 = getelementptr inbounds nuw %struct.evhttp_connection, ptr %11, i32 0, i32 19
  %13 = getelementptr inbounds nuw %struct.evcon_requestq, ptr %12, i32 0, i32 0
  %14 = load ptr, ptr %13, align 8
  store ptr %14, ptr %8, align 8
  %15 = load ptr, ptr %7, align 8
  %16 = getelementptr inbounds nuw %struct.evhttp_connection, ptr %15, i32 0, i32 17
  %17 = load i32, ptr %16, align 8
  switch i32 %17, label %62 [
    i32 1, label %18
    i32 5, label %42
    i32 0, label %61
    i32 2, label %61
    i32 3, label %61
    i32 4, label %61
    i32 6, label %61
    i32 7, label %61
  ]

18:                                               ; preds = %3
  %19 = load i16, ptr %5, align 2
  %20 = sext i16 %19 to i32
  %21 = and i32 %20, 64
  %22 = icmp ne i32 %21, 0
  br i1 %22, label %23, label %41

23:                                               ; preds = %18
  br label %24

24:                                               ; preds = %23
  %25 = load i32, ptr @event_debug_logging_mask_, align 4
  %26 = icmp ne i32 %25, 0
  br i1 %26, label %27, label %37

27:                                               ; preds = %24
  %28 = load ptr, ptr %7, align 8
  %29 = getelementptr inbounds nuw %struct.evhttp_connection, ptr %28, i32 0, i32 5
  %30 = load ptr, ptr %29, align 8
  %31 = load ptr, ptr %7, align 8
  %32 = getelementptr inbounds nuw %struct.evhttp_connection, ptr %31, i32 0, i32 6
  %33 = load i16, ptr %32, align 8
  %34 = zext i16 %33 to i32
  %35 = load ptr, ptr %4, align 8
  %36 = call i32 @bufferevent_getfd(ptr noundef %35)
  call void (ptr, ...) @event_debugx_(ptr noundef @.str.94, ptr noundef @__func__.evhttp_error_cb, ptr noundef %30, i32 noundef %34, i32 noundef %36)
  br label %37

37:                                               ; preds = %27, %24
  br label %38

38:                                               ; preds = %37
  br label %39

39:                                               ; preds = %38
  %40 = load ptr, ptr %7, align 8
  call void @evhttp_connection_cb_cleanup(ptr noundef %40)
  store i32 1, ptr %9, align 4
  br label %162

41:                                               ; preds = %18
  br label %63

42:                                               ; preds = %3
  %43 = load ptr, ptr %8, align 8
  %44 = getelementptr inbounds nuw %struct.evhttp_request, ptr %43, i32 0, i32 20
  %45 = load i8, ptr %44, align 8
  %46 = and i8 %45, 1
  %47 = zext i8 %46 to i32
  %48 = icmp ne i32 %47, 0
  br i1 %48, label %60, label %49

49:                                               ; preds = %42
  %50 = load ptr, ptr %8, align 8
  %51 = getelementptr inbounds nuw %struct.evhttp_request, ptr %50, i32 0, i32 19
  %52 = load i64, ptr %51, align 8
  %53 = icmp slt i64 %52, 0
  br i1 %53, label %54, label %60

54:                                               ; preds = %49
  %55 = load i16, ptr %5, align 2
  %56 = sext i16 %55 to i32
  %57 = icmp eq i32 %56, 17
  br i1 %57, label %58, label %60

58:                                               ; preds = %54
  %59 = load ptr, ptr %7, align 8
  call void @evhttp_connection_done(ptr noundef %59)
  store i32 1, ptr %9, align 4
  br label %162

60:                                               ; preds = %54, %49, %42
  br label %63

61:                                               ; preds = %3, %3, %3, %3, %3, %3
  br label %62

62:                                               ; preds = %3, %61
  br label %63

63:                                               ; preds = %62, %60, %41
  %64 = load ptr, ptr %7, align 8
  %65 = getelementptr inbounds nuw %struct.evhttp_connection, ptr %64, i32 0, i32 10
  %66 = load i32, ptr %65, align 8
  %67 = and i32 %66, 4
  %68 = icmp ne i32 %67, 0
  br i1 %68, label %69, label %101

69:                                               ; preds = %63
  %70 = load ptr, ptr %7, align 8
  %71 = getelementptr inbounds nuw %struct.evhttp_connection, ptr %70, i32 0, i32 10
  %72 = load i32, ptr %71, align 8
  %73 = and i32 %72, -5
  store i32 %73, ptr %71, align 8
  br label %74

74:                                               ; preds = %69
  br label %75

75:                                               ; preds = %74
  br label %76

76:                                               ; preds = %75
  br label %77

77:                                               ; preds = %76
  br label %78

78:                                               ; preds = %77
  br label %79

79:                                               ; preds = %78
  %80 = load ptr, ptr %7, align 8
  call void @evhttp_connection_reset_(ptr noundef %80, i32 noundef 1)
  %81 = load ptr, ptr %7, align 8
  %82 = getelementptr inbounds nuw %struct.evhttp_connection, ptr %81, i32 0, i32 19
  %83 = getelementptr inbounds nuw %struct.evcon_requestq, ptr %82, i32 0, i32 0
  %84 = load ptr, ptr %83, align 8
  %85 = icmp eq ptr %84, null
  br i1 %85, label %86, label %100

86:                                               ; preds = %79
  %87 = load ptr, ptr %7, align 8
  %88 = getelementptr inbounds nuw %struct.evhttp_connection, ptr %87, i32 0, i32 10
  %89 = load i32, ptr %88, align 8
  %90 = and i32 %89, 2
  %91 = icmp ne i32 %90, 0
  br i1 %91, label %92, label %100

92:                                               ; preds = %86
  %93 = load ptr, ptr %7, align 8
  %94 = getelementptr inbounds nuw %struct.evhttp_connection, ptr %93, i32 0, i32 10
  %95 = load i32, ptr %94, align 8
  %96 = and i32 %95, 1048576
  %97 = icmp ne i32 %96, 0
  br i1 %97, label %98, label %100

98:                                               ; preds = %92
  %99 = load ptr, ptr %7, align 8
  call void @evhttp_connection_free(ptr noundef %99)
  br label %100

100:                                              ; preds = %98, %92, %86, %79
  store i32 1, ptr %9, align 4
  br label %162

101:                                              ; preds = %63
  %102 = load i16, ptr %5, align 2
  %103 = sext i16 %102 to i32
  %104 = and i32 %103, 64
  %105 = icmp ne i32 %104, 0
  br i1 %105, label %106, label %108

106:                                              ; preds = %101
  %107 = load ptr, ptr %7, align 8
  call void @evhttp_connection_fail_(ptr noundef %107, i32 noundef 0)
  br label %161

108:                                              ; preds = %101
  %109 = load i16, ptr %5, align 2
  %110 = sext i16 %109 to i32
  %111 = and i32 %110, 48
  %112 = icmp ne i32 %111, 0
  br i1 %112, label %113, label %152

113:                                              ; preds = %108
  %114 = load i16, ptr %5, align 2
  %115 = sext i16 %114 to i32
  %116 = and i32 %115, 2
  %117 = icmp ne i32 %116, 0
  br i1 %117, label %118, label %127

118:                                              ; preds = %113
  %119 = load ptr, ptr %7, align 8
  %120 = getelementptr inbounds nuw %struct.evhttp_connection, ptr %119, i32 0, i32 10
  %121 = load i32, ptr %120, align 8
  %122 = and i32 %121, 16
  %123 = icmp ne i32 %122, 0
  br i1 %123, label %124, label %127

124:                                              ; preds = %118
  %125 = load ptr, ptr %7, align 8
  %126 = load ptr, ptr %8, align 8
  call void @evhttp_connection_read_on_write_error(ptr noundef %125, ptr noundef %126)
  store i32 1, ptr %9, align 4
  br label %162

127:                                              ; preds = %118, %113
  %128 = load i16, ptr %5, align 2
  %129 = sext i16 %128 to i32
  %130 = and i32 %129, 1
  %131 = icmp ne i32 %130, 0
  br i1 %131, label %132, label %150

132:                                              ; preds = %127
  %133 = load ptr, ptr %7, align 8
  %134 = getelementptr inbounds nuw %struct.evhttp_connection, ptr %133, i32 0, i32 10
  %135 = load i32, ptr %134, align 8
  %136 = and i32 %135, 16
  %137 = icmp ne i32 %136, 0
  br i1 %137, label %138, label %150

138:                                              ; preds = %132
  %139 = load ptr, ptr %4, align 8
  %140 = call ptr @bufferevent_get_input(ptr noundef %139)
  %141 = call i64 @evbuffer_get_length(ptr noundef %140)
  %142 = icmp ne i64 %141, 0
  br i1 %142, label %143, label %150

143:                                              ; preds = %138
  %144 = load ptr, ptr %7, align 8
  %145 = getelementptr inbounds nuw %struct.evhttp_connection, ptr %144, i32 0, i32 25
  %146 = load ptr, ptr %145, align 8
  %147 = load ptr, ptr %7, align 8
  %148 = getelementptr inbounds nuw %struct.evhttp_connection, ptr %147, i32 0, i32 24
  %149 = call i32 @event_deferred_cb_schedule_(ptr noundef %146, ptr noundef %148)
  store i32 1, ptr %9, align 4
  br label %162

150:                                              ; preds = %138, %132, %127
  %151 = load ptr, ptr %7, align 8
  call void @evhttp_connection_fail_(ptr noundef %151, i32 noundef 1)
  br label %160

152:                                              ; preds = %108
  %153 = load i16, ptr %5, align 2
  %154 = sext i16 %153 to i32
  %155 = icmp eq i32 %154, 128
  br i1 %155, label %156, label %157

156:                                              ; preds = %152
  br label %159

157:                                              ; preds = %152
  %158 = load ptr, ptr %7, align 8
  call void @evhttp_connection_fail_(ptr noundef %158, i32 noundef 3)
  br label %159

159:                                              ; preds = %157, %156
  br label %160

160:                                              ; preds = %159, %150
  br label %161

161:                                              ; preds = %160, %106
  store i32 0, ptr %9, align 4
  br label %162

162:                                              ; preds = %161, %143, %124, %100, %58, %39
  call void @llvm.lifetime.end.p0(i64 8, ptr %8) #11
  call void @llvm.lifetime.end.p0(i64 8, ptr %7) #11
  %163 = load i32, ptr %9, align 4
  switch i32 %163, label %165 [
    i32 0, label %164
    i32 1, label %164
  ]

164:                                              ; preds = %162, %162
  ret void

165:                                              ; preds = %162
  unreachable
}