; Function Attrs: nounwind uwtable
define internal void @evhttp_error_cb(ptr noundef %0, i16 noundef signext %1, ptr noundef %2) #0 {
  %4 = getelementptr inbounds nuw i8, ptr %2, i64 296
  %5 = load ptr, ptr %4, align 8
  %6 = getelementptr inbounds nuw i8, ptr %2, i64 280
  %7 = load i32, ptr %6, align 8
  switch i32 %7, label %30 [
    i32 1, label %8
    i32 5, label %20
  ]

8:                                                ; preds = %3
  %9 = and i16 %1, 64
  %.not35 = icmp eq i16 %9, 0
  br i1 %.not35, label %30, label %10

10:                                               ; preds = %8
  %11 = load i32, ptr @event_debug_logging_mask_, align 4
  %.not36 = icmp eq i32 %11, 0
  br i1 %.not36, label %19, label %12

12:                                               ; preds = %10
  %13 = getelementptr inbounds nuw i8, ptr %2, i64 160
  %14 = load ptr, ptr %13, align 8
  %15 = getelementptr inbounds nuw i8, ptr %2, i64 168
  %16 = load i16, ptr %15, align 8
  %17 = zext i16 %16 to i32
  %18 = tail call i32 @bufferevent_getfd(ptr noundef %0) #18
  tail call void (ptr, ...) @event_debugx_(ptr noundef nonnull @.str.94, ptr noundef nonnull @__func__.evhttp_error_cb, ptr noundef %14, i32 noundef %17, i32 noundef %18) #18
  br label %19

19:                                               ; preds = %12, %10
  tail call fastcc void @evhttp_connection_cb_cleanup(ptr noundef nonnull %2)
  br label %evhttp_connection_read_on_write_error.exit

20:                                               ; preds = %3
  %21 = getelementptr inbounds nuw i8, ptr %5, i64 144
  %22 = load i8, ptr %21, align 8
  %23 = and i8 %22, 1
  %.not = icmp eq i8 %23, 0
  br i1 %.not, label %24, label %30

24:                                               ; preds = %20
  %25 = getelementptr inbounds nuw i8, ptr %5, i64 136
  %26 = load i64, ptr %25, align 8
  %27 = icmp slt i64 %26, 0
  %28 = icmp eq i16 %1, 17
  %or.cond = and i1 %28, %27
  br i1 %or.cond, label %29, label %30

29:                                               ; preds = %24
  tail call fastcc void @evhttp_connection_done(ptr noundef nonnull %2)
  br label %evhttp_connection_read_on_write_error.exit

30:                                               ; preds = %3, %20, %24, %8
  %31 = getelementptr inbounds nuw i8, ptr %2, i64 200
  %32 = load i32, ptr %31, align 8
  %33 = and i32 %32, 4
  %.not37 = icmp eq i32 %33, 0
  br i1 %.not37, label %42, label %34

34:                                               ; preds = %30
  %35 = and i32 %32, -5
  store i32 %35, ptr %31, align 8
  tail call void @evhttp_connection_reset_(ptr noundef nonnull %2, i32 noundef 1)
  %36 = load ptr, ptr %4, align 8
  %37 = icmp eq ptr %36, null
  br i1 %37, label %38, label %evhttp_connection_read_on_write_error.exit

38:                                               ; preds = %34
  %39 = load i32, ptr %31, align 8
  %40 = and i32 %39, 1048578
  %or.cond47.not = icmp eq i32 %40, 1048578
  br i1 %or.cond47.not, label %41, label %evhttp_connection_read_on_write_error.exit

41:                                               ; preds = %38
  tail call void @evhttp_connection_free(ptr noundef nonnull %2)
  br label %evhttp_connection_read_on_write_error.exit

42:                                               ; preds = %30
  %43 = and i16 %1, 64
  %.not38 = icmp eq i16 %43, 0
  br i1 %.not38, label %45, label %44

44:                                               ; preds = %42
  tail call void @evhttp_connection_fail_(ptr noundef nonnull %2, i32 noundef 0)
  br label %evhttp_connection_read_on_write_error.exit

45:                                               ; preds = %42
  %46 = and i16 %1, 48
  %.not39 = icmp eq i16 %46, 0
  br i1 %.not39, label %76, label %47

47:                                               ; preds = %45
  %48 = and i16 %1, 2
  %.not40 = icmp eq i16 %48, 0
  %49 = and i32 %32, 16
  %.not41 = icmp eq i32 %49, 0
  %or.cond48 = or i1 %.not40, %.not41
  br i1 %or.cond48, label %65, label %50

50:                                               ; preds = %47
  %51 = and i32 %32, 2097152
  %.not.i = icmp eq i32 %51, 0
  br i1 %.not.i, label %54, label %52

52:                                               ; preds = %50
  %53 = and i32 %32, -2097157
  store i32 %53, ptr %31, align 8
  tail call void @evhttp_connection_fail_(ptr noundef nonnull %2, i32 noundef 1)
  br label %evhttp_connection_read_on_write_error.exit

54:                                               ; preds = %50
  %55 = getelementptr inbounds nuw i8, ptr %5, i64 72
  store i32 1, ptr %55, align 8
  %56 = getelementptr inbounds nuw i8, ptr %2, i64 16
  %57 = load ptr, ptr %56, align 8
  %58 = tail call ptr @bufferevent_get_output(ptr noundef %57) #18
  %59 = tail call i32 @evbuffer_unfreeze(ptr noundef %58, i32 noundef 1) #18
  %60 = tail call i64 @evbuffer_get_length(ptr noundef %58) #18
  %61 = tail call i32 @evbuffer_drain(ptr noundef %58, i64 noundef %60) #18
  %62 = tail call i32 @evbuffer_freeze(ptr noundef %58, i32 noundef 1) #18
  tail call void @evhttp_start_read_(ptr noundef nonnull %2)
  %63 = load i32, ptr %31, align 8
  %64 = or i32 %63, 2097152
  store i32 %64, ptr %31, align 8
  br label %evhttp_connection_read_on_write_error.exit

65:                                               ; preds = %47
  %66 = and i16 %1, 1
  %.not42 = icmp eq i16 %66, 0
  %brmerge = or i1 %.not42, %.not41
  br i1 %brmerge, label %75, label %67

67:                                               ; preds = %65
  %68 = tail call ptr @bufferevent_get_input(ptr noundef %0) #18
  %69 = tail call i64 @evbuffer_get_length(ptr noundef %68) #18
  %.not44 = icmp eq i64 %69, 0
  br i1 %.not44, label %75, label %70

70:                                               ; preds = %67
  %71 = getelementptr inbounds nuw i8, ptr %2, i64 384
  %72 = load ptr, ptr %71, align 8
  %73 = getelementptr inbounds nuw i8, ptr %2, i64 344
  %74 = tail call i32 @event_deferred_cb_schedule_(ptr noundef %72, ptr noundef nonnull %73) #18
  br label %evhttp_connection_read_on_write_error.exit

75:                                               ; preds = %65, %67
  tail call void @evhttp_connection_fail_(ptr noundef nonnull %2, i32 noundef 1)
  br label %evhttp_connection_read_on_write_error.exit

76:                                               ; preds = %45
  %77 = icmp eq i16 %1, 128
  br i1 %77, label %evhttp_connection_read_on_write_error.exit, label %78

78:                                               ; preds = %76
  tail call void @evhttp_connection_fail_(ptr noundef nonnull %2, i32 noundef 3)
  br label %evhttp_connection_read_on_write_error.exit

evhttp_connection_read_on_write_error.exit:       ; preds = %54, %52, %44, %78, %76, %75, %34, %38, %41, %70, %29, %19
  ret void
}